target datalayout = "e-m:e-p270:32:32-p271:32:32-p272:64:64-i64:64-i128:128-f80:128-n8:16:32:64-S128"
target triple = "x86_64-pc-linux-gnu"

%struct.DdNode = type { i32, i32, ptr, %union.anon, i64 }
%union.anon = type { %struct.DdChildren }
%struct.DdChildren = type { ptr, ptr }
%struct.Conjuncts = type { ptr, ptr }

@one = internal global ptr null, align 8

; Function Attrs: nounwind uwtable
define internal ptr @PickOnePair(ptr noundef %0, ptr noundef %1, ptr noundef %2, ptr noundef %3, ptr noundef %4, ptr noundef %5, ptr noundef %6) #0 {
  %8 = alloca ptr, align 8
  %9 = alloca ptr, align 8
  %10 = alloca ptr, align 8
  %11 = alloca ptr, align 8
  %12 = alloca ptr, align 8
  %13 = alloca ptr, align 8
  %14 = alloca ptr, align 8
  %15 = alloca ptr, align 8
  %16 = alloca i32, align 4
  %17 = alloca ptr, align 8
  %18 = alloca i32, align 4
  %19 = alloca i32, align 4
  %20 = alloca i32, align 4
  store ptr %0, ptr %9, align 8, !tbaa !8
  store ptr %1, ptr %10, align 8, !tbaa !8
  store ptr %2, ptr %11, align 8, !tbaa !8
  store ptr %3, ptr %12, align 8, !tbaa !8
  store ptr %4, ptr %13, align 8, !tbaa !8
  store ptr %5, ptr %14, align 8, !tbaa !38
  store ptr %6, ptr %15, align 8, !tbaa !38
  call void @llvm.lifetime.start.p0(i64 4, ptr %16) #5
  call void @llvm.lifetime.start.p0(i64 8, ptr %17) #5
  call void @llvm.lifetime.start.p0(i64 4, ptr %18) #5
  call void @llvm.lifetime.start.p0(i64 4, ptr %19) #5
  %21 = call noalias ptr @malloc(i64 noundef 16) #6
  store ptr %21, ptr %17, align 8, !tbaa !53
  %22 = load ptr, ptr %17, align 8, !tbaa !53
  %23 = icmp eq ptr %22, null
  br i1 %23, label %24, label %25

24:                                               ; preds = %7
  store ptr null, ptr %8, align 8
  store i32 1, ptr %20, align 4
  br label %264

25:                                               ; preds = %7
  %26 = load ptr, ptr %13, align 8, !tbaa !8
  %27 = load ptr, ptr @one, align 8, !tbaa !8
  %28 = icmp eq ptr %26, %27
  br i1 %28, label %29, label %36

29:                                               ; preds = %25
  %30 = load ptr, ptr %12, align 8, !tbaa !8
  %31 = ptrtoint ptr %30 to i64
  %32 = and i64 %31, -2
  %33 = inttoptr i64 %32 to ptr
  %34 = getelementptr inbounds nuw %struct.DdNode, ptr %33, i32 0, i32 1
  %35 = load i32, ptr %34, align 4, !tbaa !14
  store i32 %35, ptr %19, align 4, !tbaa !12
  br label %63

36:                                               ; preds = %25
  %37 = load ptr, ptr %12, align 8, !tbaa !8
  %38 = load ptr, ptr @one, align 8, !tbaa !8
  %39 = icmp eq ptr %37, %38
  br i1 %39, label %40, label %47

40:                                               ; preds = %36
  %41 = load ptr, ptr %13, align 8, !tbaa !8
  %42 = ptrtoint ptr %41 to i64
  %43 = and i64 %42, -2
  %44 = inttoptr i64 %43 to ptr
  %45 = getelementptr inbounds nuw %struct.DdNode, ptr %44, i32 0, i32 1
  %46 = load i32, ptr %45, align 4, !tbaa !14
  store i32 %46, ptr %19, align 4, !tbaa !12
  br label %62

47:                                               ; preds = %36
  %48 = load ptr, ptr %12, align 8, !tbaa !8
  %49 = ptrtoint ptr %48 to i64
  %50 = and i64 %49, -2
  %51 = inttoptr i64 %50 to ptr
  %52 = getelementptr inbounds nuw %struct.DdNode, ptr %51, i32 0, i32 1
  %53 = load i32, ptr %52, align 4, !tbaa !14
  %54 = load ptr, ptr %13, align 8, !tbaa !8
  %55 = ptrtoint ptr %54 to i64
  %56 = and i64 %55, -2
  %57 = inttoptr i64 %56 to ptr
  %58 = getelementptr inbounds nuw %struct.DdNode, ptr %57, i32 0, i32 1
  %59 = load i32, ptr %58, align 4, !tbaa !14
  %60 = add i32 %53, %59
  %61 = udiv i32 %60, 2
  store i32 %61, ptr %19, align 4, !tbaa !12
  br label %62

62:                                               ; preds = %47, %40
  br label %63

63:                                               ; preds = %62, %29
  %64 = load ptr, ptr %11, align 8, !tbaa !8
  %65 = load ptr, ptr @one, align 8, !tbaa !8
  %66 = icmp eq ptr %64, %65
  br i1 %66, label %67, label %74

67:                                               ; preds = %63
  %68 = load ptr, ptr %10, align 8, !tbaa !8
  %69 = ptrtoint ptr %68 to i64
  %70 = and i64 %69, -2
  %71 = inttoptr i64 %70 to ptr
  %72 = getelementptr inbounds nuw %struct.DdNode, ptr %71, i32 0, i32 1
  %73 = load i32, ptr %72, align 4, !tbaa !14
  store i32 %73, ptr %18, align 4, !tbaa !12
  br label %101

74:                                               ; preds = %63
  %75 = load ptr, ptr %10, align 8, !tbaa !8
  %76 = load ptr, ptr @one, align 8, !tbaa !8
  %77 = icmp eq ptr %75, %76
  br i1 %77, label %78, label %85

78:                                               ; preds = %74
  %79 = load ptr, ptr %11, align 8, !tbaa !8
  %80 = ptrtoint ptr %79 to i64
  %81 = and i64 %80, -2
  %82 = inttoptr i64 %81 to ptr
  %83 = getelementptr inbounds nuw %struct.DdNode, ptr %82, i32 0, i32 1
  %84 = load i32, ptr %83, align 4, !tbaa !14
  store i32 %84, ptr %18, align 4, !tbaa !12
  br label %100

85:                                               ; preds = %74
  %86 = load ptr, ptr %10, align 8, !tbaa !8
  %87 = ptrtoint ptr %86 to i64
  %88 = and i64 %87, -2
  %89 = inttoptr i64 %88 to ptr
  %90 = getelementptr inbounds nuw %struct.DdNode, ptr %89, i32 0, i32 1
  %91 = load i32, ptr %90, align 4, !tbaa !14
  %92 = load ptr, ptr %11, align 8, !tbaa !8
  %93 = ptrtoint ptr %92 to i64
  %94 = and i64 %93, -2
  %95 = inttoptr i64 %94 to ptr
  %96 = getelementptr inbounds nuw %struct.DdNode, ptr %95, i32 0, i32 1
  %97 = load i32, ptr %96, align 4, !tbaa !14
  %98 = add i32 %91, %97
  %99 = udiv i32 %98, 2
  store i32 %99, ptr %18, align 4, !tbaa !12
  br label %100

100:                                              ; preds = %85, %78
  br label %101

101:                                              ; preds = %100, %67
  %102 = load i32, ptr %18, align 4, !tbaa !12
  %103 = load i32, ptr %19, align 4, !tbaa !12
  %104 = icmp sge i32 %102, %103
  br i1 %104, label %105, label %112

105:                                              ; preds = %101
  %106 = load ptr, ptr %10, align 8, !tbaa !8
  %107 = load ptr, ptr %17, align 8, !tbaa !53
  %108 = getelementptr inbounds nuw %struct.Conjuncts, ptr %107, i32 0, i32 0
  store ptr %106, ptr %108, align 8, !tbaa !57
  %109 = load ptr, ptr %11, align 8, !tbaa !8
  %110 = load ptr, ptr %17, align 8, !tbaa !53
  %111 = getelementptr inbounds nuw %struct.Conjuncts, ptr %110, i32 0, i32 1
  store ptr %109, ptr %111, align 8, !tbaa !59
  br label %119

112:                                              ; preds = %101
  %113 = load ptr, ptr %12, align 8, !tbaa !8
  %114 = load ptr, ptr %17, align 8, !tbaa !53
  %115 = getelementptr inbounds nuw %struct.Conjuncts, ptr %114, i32 0, i32 0
  store ptr %113, ptr %115, align 8, !tbaa !57
  %116 = load ptr, ptr %13, align 8, !tbaa !8
  %117 = load ptr, ptr %17, align 8, !tbaa !53
  %118 = getelementptr inbounds nuw %struct.Conjuncts, ptr %117, i32 0, i32 1
  store ptr %116, ptr %118, align 8, !tbaa !59
  br label %119

119:                                              ; preds = %112, %105
  %120 = load ptr, ptr %17, align 8, !tbaa !53
  %121 = getelementptr inbounds nuw %struct.Conjuncts, ptr %120, i32 0, i32 0
  %122 = load ptr, ptr %121, align 8, !tbaa !57
  %123 = load ptr, ptr @one, align 8, !tbaa !8
  %124 = icmp ne ptr %122, %123
  br i1 %124, label %125, label %184

125:                                              ; preds = %119
  store i32 0, ptr %16, align 4, !tbaa !12
  %126 = load ptr, ptr %14, align 8, !tbaa !38
  %127 = load ptr, ptr %17, align 8, !tbaa !53
  %128 = getelementptr inbounds nuw %struct.Conjuncts, ptr %127, i32 0, i32 0
  %129 = load ptr, ptr %128, align 8, !tbaa !57
  %130 = ptrtoint ptr %129 to i64
  %131 = and i64 %130, -2
  %132 = inttoptr i64 %131 to ptr
  %133 = call i32 @st__lookup_int(ptr noundef %126, ptr noundef %132, ptr noundef %16)
  %134 = icmp ne i32 %133, 0
  br i1 %134, label %135, label %162

135:                                              ; preds = %125
  %136 = load i32, ptr %16, align 4, !tbaa !12
  %137 = icmp eq i32 %136, 2
  br i1 %137, label %138, label %161

138:                                              ; preds = %135
  %139 = load i32, ptr %16, align 4, !tbaa !12
  %140 = or i32 %139, 1
  store i32 %140, ptr %16, align 4, !tbaa !12
  %141 = load ptr, ptr %14, align 8, !tbaa !38
  %142 = load ptr, ptr %17, align 8, !tbaa !53
  %143 = getelementptr inbounds nuw %struct.Conjuncts, ptr %142, i32 0, i32 0
  %144 = load ptr, ptr %143, align 8, !tbaa !57
  %145 = ptrtoint ptr %144 to i64
  %146 = and i64 %145, -2
  %147 = inttoptr i64 %146 to ptr
  %148 = load i32, ptr %16, align 4, !tbaa !12
  %149 = sext i32 %148 to i64
  %150 = inttoptr i64 %149 to ptr
  %151 = call i32 @st__insert(ptr noundef %141, ptr noundef %147, ptr noundef %150)
  %152 = icmp eq i32 %151, -10000
  br i1 %152, label %153, label %160

153:                                              ; preds = %138
  %154 = load ptr, ptr %17, align 8, !tbaa !53
  %155 = icmp ne ptr %154, null
  br i1 %155, label %156, label %158

156:                                              ; preds = %153
  %157 = load ptr, ptr %17, align 8, !tbaa !53
  call void @free(ptr noundef %157) #5
  store ptr null, ptr %17, align 8, !tbaa !53
  br label %159

158:                                              ; preds = %153
  br label %159

159:                                              ; preds = %158, %156
  store ptr null, ptr %8, align 8
  store i32 1, ptr %20, align 4
  br label %264

160:                                              ; preds = %138
  br label %161

161:                                              ; preds = %160, %135
  br label %183

162:                                              ; preds = %125
  store i32 1, ptr %16, align 4, !tbaa !12
  %163 = load ptr, ptr %14, align 8, !tbaa !38
  %164 = load ptr, ptr %17, align 8, !tbaa !53
  %165 = getelementptr inbounds nuw %struct.Conjuncts, ptr %164, i32 0, i32 0
  %166 = load ptr, ptr %165, align 8, !tbaa !57
  %167 = ptrtoint ptr %166 to i64
  %168 = and i64 %167, -2
  %169 = inttoptr i64 %168 to ptr
  %170 = load i32, ptr %16, align 4, !tbaa !12
  %171 = sext i32 %170 to i64
  %172 = inttoptr i64 %171 to ptr
  %173 = call i32 @st__insert(ptr noundef %163, ptr noundef %169, ptr noundef %172)
  %174 = icmp eq i32 %173, -10000
  br i1 %174, label %175, label %182

175:                                              ; preds = %162
  %176 = load ptr, ptr %17, align 8, !tbaa !53
  %177 = icmp ne ptr %176, null
  br i1 %177, label %178, label %180

178:                                              ; preds = %175
  %179 = load ptr, ptr %17, align 8, !tbaa !53
  call void @free(ptr noundef %179) #5
  store ptr null, ptr %17, align 8, !tbaa !53
  br label %181

180:                                              ; preds = %175
  br label %181

181:                                              ; preds = %180, %178
  store ptr null, ptr %8, align 8
  store i32 1, ptr %20, align 4
  br label %264

182:                                              ; preds = %162
  br label %183

183:                                              ; preds = %182, %161
  br label %184

184:                                              ; preds = %183, %119
  %185 = load ptr, ptr %17, align 8, !tbaa !53
  %186 = getelementptr inbounds nuw %struct.Conjuncts, ptr %185, i32 0, i32 1
  %187 = load ptr, ptr %186, align 8, !tbaa !59
  %188 = load ptr, ptr @one, align 8, !tbaa !8
  %189 = icmp ne ptr %187, %188
  br i1 %189, label %190, label %249

190:                                              ; preds = %184
  store i32 0, ptr %16, align 4, !tbaa !12
  %191 = load ptr, ptr %14, align 8, !tbaa !38
  %192 = load ptr, ptr %17, align 8, !tbaa !53
  %193 = getelementptr inbounds nuw %struct.Conjuncts, ptr %192, i32 0, i32 1
  %194 = load ptr, ptr %193, align 8, !tbaa !59
  %195 = ptrtoint ptr %194 to i64
  %196 = and i64 %195, -2
  %197 = inttoptr i64 %196 to ptr
  %198 = call i32 @st__lookup_int(ptr noundef %191, ptr noundef %197, ptr noundef %16)
  %199 = icmp ne i32 %198, 0
  br i1 %199, label %200, label %227

200:                                              ; preds = %190
  %201 = load i32, ptr %16, align 4, !tbaa !12
  %202 = icmp eq i32 %201, 1
  br i1 %202, label %203, label %226

203:                                              ; preds = %200
  %204 = load i32, ptr %16, align 4, !tbaa !12
  %205 = or i32 %204, 2
  store i32 %205, ptr %16, align 4, !tbaa !12
  %206 = load ptr, ptr %14, align 8, !tbaa !38
  %207 = load ptr, ptr %17, align 8, !tbaa !53
  %208 = getelementptr inbounds nuw %struct.Conjuncts, ptr %207, i32 0, i32 1
  %209 = load ptr, ptr %208, align 8, !tbaa !59
  %210 = ptrtoint ptr %209 to i64
  %211 = and i64 %210, -2
  %212 = inttoptr i64 %211 to ptr
  %213 = load i32, ptr %16, align 4, !tbaa !12
  %214 = sext i32 %213 to i64
  %215 = inttoptr i64 %214 to ptr
  %216 = call i32 @st__insert(ptr noundef %206, ptr noundef %212, ptr noundef %215)
  %217 = icmp eq i32 %216, -10000
  br i1 %217, label %218, label %225

218:                                              ; preds = %203
  %219 = load ptr, ptr %17, align 8, !tbaa !53
  %220 = icmp ne ptr %219, null
  br i1 %220, label %221, label %223

221:                                              ; preds = %218
  %222 = load ptr, ptr %17, align 8, !tbaa !53
  call void @free(ptr noundef %222) #5
  store ptr null, ptr %17, align 8, !tbaa !53
  br label %224

223:                                              ; preds = %218
  br label %224

224:                                              ; preds = %223, %221
  store ptr null, ptr %8, align 8
  store i32 1, ptr %20, align 4
  br label %264

225:                                              ; preds = %203
  br label %226

226:                                              ; preds = %225, %200
  br label %248

227:                                              ; preds = %190
  store i32 2, ptr %16, align 4, !tbaa !12
  %228 = load ptr, ptr %14, align 8, !tbaa !38
  %229 = load ptr, ptr %17, align 8, !tbaa !53
  %230 = getelementptr inbounds nuw %struct.Conjuncts, ptr %229, i32 0, i32 1
  %231 = load ptr, ptr %230, align 8, !tbaa !59
  %232 = ptrtoint ptr %231 to i64
  %233 = and i64 %232, -2
  %234 = inttoptr i64 %233 to ptr
  %235 = load i32, ptr %16, align 4, !tbaa !12
  %236 = sext i32 %235 to i64
  %237 = inttoptr i64 %236 to ptr
  %238 = call i32 @st__insert(ptr noundef %228, ptr noundef %234, ptr noundef %237)
  %239 = icmp eq i32 %238, -10000
  br i1 %239, label %240, label %247

240:                                              ; preds = %227
  %241 = load ptr, ptr %17, align 8, !tbaa !53
  %242 = icmp ne ptr %241, null
  br i1 %242, label %243, label %245

243:                                              ; preds = %240
  %244 = load ptr, ptr %17, align 8, !tbaa !53
  call void @free(ptr noundef %244) #5
  store ptr null, ptr %17, align 8, !tbaa !53
  br label %246

245:                                              ; preds = %240
  br label %246

246:                                              ; preds = %245, %243
  store ptr null, ptr %8, align 8
  store i32 1, ptr %20, align 4
  br label %264

247:                                              ; preds = %227
  br label %248

248:                                              ; preds = %247, %226
  br label %249

249:                                              ; preds = %248, %184
  %250 = load ptr, ptr %15, align 8, !tbaa !38
  %251 = load ptr, ptr %9, align 8, !tbaa !8
  %252 = load ptr, ptr %17, align 8, !tbaa !53
  %253 = call i32 @st__insert(ptr noundef %250, ptr noundef %251, ptr noundef %252)
  %254 = icmp eq i32 %253, -10000
  br i1 %254, label %255, label %262

255:                                              ; preds = %249
  %256 = load ptr, ptr %17, align 8, !tbaa !53
  %257 = icmp ne ptr %256, null
  br i1 %257, label %258, label %260

258:                                              ; preds = %255
  %259 = load ptr, ptr %17, align 8, !tbaa !53
  call void @free(ptr noundef %259) #5
  store ptr null, ptr %17, align 8, !tbaa !53
  br label %261

260:                                              ; preds = %255
  br label %261

261:                                              ; preds = %260, %258
  store ptr null, ptr %8, align 8
  store i32 1, ptr %20, align 4
  br label %264

262:                                              ; preds = %249
  %263 = load ptr, ptr %17, align 8, !tbaa !53
  store ptr %263, ptr %8, align 8
  store i32 1, ptr %20, align 4
  br label %264

264:                                              ; preds = %262, %261, %246, %224, %181, %159, %24
  call void @llvm.lifetime.end.p0(i64 4, ptr %19) #5
  call void @llvm.lifetime.end.p0(i64 4, ptr %18) #5
  call void @llvm.lifetime.end.p0(i64 8, ptr %17) #5
  call void @llvm.lifetime.end.p0(i64 4, ptr %16) #5
  %265 = load ptr, ptr %8, align 8
  ret ptr %265
}