; Function Attrs: nounwind uwtable
define internal fastcc noundef ptr @PickOnePair(ptr noundef %0, ptr noundef nonnull %1, ptr noundef %2, ptr noundef %3, ptr noundef nonnull %4, ptr noundef nonnull %5, ptr noundef nonnull %6) unnamed_addr #0 {
  %8 = alloca i32, align 4
  call void @llvm.lifetime.start.p0(i64 4, ptr nonnull %8) #8
  %9 = tail call noalias dereferenceable_or_null(16) ptr @malloc(i64 noundef 16) #9
  %10 = icmp eq ptr %9, null
  br i1 %10, label %106, label %11

11:                                               ; preds = %7
  %12 = load ptr, ptr @one, align 8, !tbaa !27
  %13 = icmp eq ptr %4, %12
  br i1 %13, label %14, label %20

14:                                               ; preds = %11
  %15 = ptrtoint ptr %3 to i64
  %16 = and i64 %15, -2
  %17 = inttoptr i64 %16 to ptr
  %18 = getelementptr inbounds nuw i8, ptr %17, i64 4
  %19 = load i32, ptr %18, align 4, !tbaa !3
  br label %41

20:                                               ; preds = %11
  %21 = icmp eq ptr %3, %12
  br i1 %21, label %22, label %28

22:                                               ; preds = %20
  %23 = ptrtoint ptr %4 to i64
  %24 = and i64 %23, -2
  %25 = inttoptr i64 %24 to ptr
  %26 = getelementptr inbounds nuw i8, ptr %25, i64 4
  %27 = load i32, ptr %26, align 4, !tbaa !3
  br label %41

28:                                               ; preds = %20
  %29 = ptrtoint ptr %3 to i64
  %30 = and i64 %29, -2
  %31 = inttoptr i64 %30 to ptr
  %32 = getelementptr inbounds nuw i8, ptr %31, i64 4
  %33 = load i32, ptr %32, align 4, !tbaa !3
  %34 = ptrtoint ptr %4 to i64
  %35 = and i64 %34, -2
  %36 = inttoptr i64 %35 to ptr
  %37 = getelementptr inbounds nuw i8, ptr %36, i64 4
  %38 = load i32, ptr %37, align 4, !tbaa !3
  %39 = add i32 %38, %33
  %40 = lshr i32 %39, 1
  br label %41

41:                                               ; preds = %22, %28, %14
  %.0 = phi i32 [ %19, %14 ], [ %27, %22 ], [ %40, %28 ]
  %42 = icmp eq ptr %2, %12
  br i1 %42, label %43, label %49

43:                                               ; preds = %41
  %44 = ptrtoint ptr %1 to i64
  %45 = and i64 %44, -2
  %46 = inttoptr i64 %45 to ptr
  %47 = getelementptr inbounds nuw i8, ptr %46, i64 4
  %48 = load i32, ptr %47, align 4, !tbaa !3
  br label %70

49:                                               ; preds = %41
  %50 = icmp eq ptr %1, %12
  br i1 %50, label %51, label %57

51:                                               ; preds = %49
  %52 = ptrtoint ptr %2 to i64
  %53 = and i64 %52, -2
  %54 = inttoptr i64 %53 to ptr
  %55 = getelementptr inbounds nuw i8, ptr %54, i64 4
  %56 = load i32, ptr %55, align 4, !tbaa !3
  br label %70

57:                                               ; preds = %49
  %58 = ptrtoint ptr %1 to i64
  %59 = and i64 %58, -2
  %60 = inttoptr i64 %59 to ptr
  %61 = getelementptr inbounds nuw i8, ptr %60, i64 4
  %62 = load i32, ptr %61, align 4, !tbaa !3
  %63 = ptrtoint ptr %2 to i64
  %64 = and i64 %63, -2
  %65 = inttoptr i64 %64 to ptr
  %66 = getelementptr inbounds nuw i8, ptr %65, i64 4
  %67 = load i32, ptr %66, align 4, !tbaa !3
  %68 = add i32 %67, %62
  %69 = lshr i32 %68, 1
  br label %70

70:                                               ; preds = %51, %57, %43
  %.051 = phi i32 [ %48, %43 ], [ %56, %51 ], [ %69, %57 ]
  %.not = icmp slt i32 %.051, %.0
  %spec.select = select i1 %.not, ptr %3, ptr %1
  %spec.select67 = select i1 %.not, ptr %4, ptr %2
  store ptr %spec.select, ptr %9, align 8, !tbaa !42
  %71 = getelementptr inbounds nuw i8, ptr %9, i64 8
  store ptr %spec.select67, ptr %71, align 8, !tbaa !44
  %.not62 = icmp eq ptr %spec.select, %12
  br i1 %.not62, label %86, label %72

72:                                               ; preds = %70
  store i32 0, ptr %8, align 4, !tbaa !62
  %73 = ptrtoint ptr %spec.select to i64
  %74 = and i64 %73, -2
  %75 = inttoptr i64 %74 to ptr
  %76 = call i32 @st__lookup_int(ptr noundef nonnull %5, ptr noundef %75, ptr noundef nonnull %8) #8
  %.not63 = icmp eq i32 %76, 0
  br i1 %.not63, label %83, label %77

77:                                               ; preds = %72
  %78 = load i32, ptr %8, align 4, !tbaa !62
  %79 = icmp eq i32 %78, 2
  br i1 %79, label %80, label %86

80:                                               ; preds = %77
  store i32 3, ptr %8, align 4, !tbaa !62
  %81 = call i32 @st__insert(ptr noundef nonnull %5, ptr noundef %75, ptr noundef nonnull inttoptr (i64 3 to ptr)) #8
  %82 = icmp eq i32 %81, -10000
  br i1 %82, label %.sink.split, label %86

83:                                               ; preds = %72
  store i32 1, ptr %8, align 4, !tbaa !62
  %84 = call i32 @st__insert(ptr noundef nonnull %5, ptr noundef %75, ptr noundef nonnull inttoptr (i64 1 to ptr)) #8
  %85 = icmp eq i32 %84, -10000
  br i1 %85, label %.sink.split, label %86

86:                                               ; preds = %80, %77, %83, %70
  %87 = load ptr, ptr %71, align 8, !tbaa !44
  %88 = load ptr, ptr @one, align 8, !tbaa !27
  %.not64 = icmp eq ptr %87, %88
  br i1 %.not64, label %103, label %89

89:                                               ; preds = %86
  store i32 0, ptr %8, align 4, !tbaa !62
  %90 = ptrtoint ptr %87 to i64
  %91 = and i64 %90, -2
  %92 = inttoptr i64 %91 to ptr
  %93 = call i32 @st__lookup_int(ptr noundef nonnull %5, ptr noundef %92, ptr noundef nonnull %8) #8
  %.not65 = icmp eq i32 %93, 0
  br i1 %.not65, label %100, label %94

94:                                               ; preds = %89
  %95 = load i32, ptr %8, align 4, !tbaa !62
  %96 = icmp eq i32 %95, 1
  br i1 %96, label %97, label %103

97:                                               ; preds = %94
  store i32 3, ptr %8, align 4, !tbaa !62
  %98 = call i32 @st__insert(ptr noundef nonnull %5, ptr noundef %92, ptr noundef nonnull inttoptr (i64 3 to ptr)) #8
  %99 = icmp eq i32 %98, -10000
  br i1 %99, label %.sink.split, label %103

100:                                              ; preds = %89
  store i32 2, ptr %8, align 4, !tbaa !62
  %101 = call i32 @st__insert(ptr noundef nonnull %5, ptr noundef %92, ptr noundef nonnull inttoptr (i64 2 to ptr)) #8
  %102 = icmp eq i32 %101, -10000
  br i1 %102, label %.sink.split, label %103

103:                                              ; preds = %97, %94, %100, %86
  %104 = call i32 @st__insert(ptr noundef nonnull %6, ptr noundef %0, ptr noundef nonnull %9) #8
  %105 = icmp eq i32 %104, -10000
  br i1 %105, label %.sink.split, label %106

.sink.split:                                      ; preds = %103, %100, %97, %83, %80
  call void @free(ptr noundef nonnull %9) #8
  br label %106

106:                                              ; preds = %.sink.split, %103, %7
  %.052 = phi ptr [ null, %7 ], [ %9, %103 ], [ null, %.sink.split ]
  call void @llvm.lifetime.end.p0(i64 4, ptr nonnull %8) #8
  ret ptr %.052
}